target datalayout = "e-m:e-p270:32:32-p271:32:32-p272:64:64-i64:64-i128:128-f80:128-n8:16:32:64-S128"
target triple = "x86_64-pc-linux-gnu"

%struct.Abc_Obj_t_ = type { ptr, ptr, i32, i32, %struct.Vec_Int_t_, %struct.Vec_Int_t_, %union.anon, %union.anon.0 }
%struct.Vec_Int_t_ = type { i32, i32, ptr }
%union.anon = type { ptr }
%union.anon.0 = type { ptr }
%struct.Abc_Ntk_t_ = type { i32, i32, ptr, ptr, ptr, ptr, ptr, ptr, ptr, ptr, ptr, ptr, ptr, [11 x i32], i32, i32, i32, i32, ptr, i32, ptr, ptr, i32, i32, i32, double, i32, %struct.Vec_Int_t_, ptr, ptr, ptr, ptr, ptr, float, i32, ptr, ptr, ptr, ptr, ptr, ptr, ptr, ptr, ptr, ptr, ptr, ptr, ptr, ptr, ptr, ptr, ptr, ptr, ptr, ptr, ptr, ptr }

@.str.2 = private unnamed_addr constant [13 x i8] c"11- 1\0A0-1 1\0A\00", align 1

; Function Attrs: inlinehint nounwind uwtable
define internal i32 @Abc_NtkHasAig(ptr noundef %0) #2 {
  %2 = alloca ptr, align 8
  store ptr %0, ptr %2, align 8, !tbaa !33
  %3 = load ptr, ptr %2, align 8, !tbaa !33
  %4 = getelementptr inbounds nuw %struct.Abc_Ntk_t_, ptr %3, i32 0, i32 1
  %5 = load i32, ptr %4, align 4, !tbaa !57
  %6 = icmp eq i32 %5, 3
  %7 = zext i1 %6 to i32
  ret i32 %7
}

; Function Attrs: inlinehint nounwind uwtable
define internal i32 @Abc_NtkHasBdd(ptr noundef %0) #2 {
  %2 = alloca ptr, align 8
  store ptr %0, ptr %2, align 8, !tbaa !33
  %3 = load ptr, ptr %2, align 8, !tbaa !33
  %4 = getelementptr inbounds nuw %struct.Abc_Ntk_t_, ptr %3, i32 0, i32 1
  %5 = load i32, ptr %4, align 4, !tbaa !57
  %6 = icmp eq i32 %5, 2
  %7 = zext i1 %6 to i32
  ret i32 %7
}

; Function Attrs: inlinehint nounwind uwtable
define internal i32 @Abc_NtkHasSop(ptr noundef %0) #2 {
  %2 = alloca ptr, align 8
  store ptr %0, ptr %2, align 8, !tbaa !33
  %3 = load ptr, ptr %2, align 8, !tbaa !33
  %4 = getelementptr inbounds nuw %struct.Abc_Ntk_t_, ptr %3, i32 0, i32 1
  %5 = load i32, ptr %4, align 4, !tbaa !57
  %6 = icmp eq i32 %5, 1
  %7 = zext i1 %6 to i32
  ret i32 %7
}

; Function Attrs: nounwind uwtable
define void @Abc_NtkNodeConvertToMux(ptr noundef %0, ptr noundef %1, ptr noundef %2, ptr noundef %3, ptr noundef %4) #0 {
  %6 = alloca ptr, align 8
  %7 = alloca ptr, align 8
  %8 = alloca ptr, align 8
  %9 = alloca ptr, align 8
  %10 = alloca ptr, align 8
  store ptr %0, ptr %6, align 8, !tbaa !33
  store ptr %1, ptr %7, align 8, !tbaa !3
  store ptr %2, ptr %8, align 8, !tbaa !3
  store ptr %3, ptr %9, align 8, !tbaa !3
  store ptr %4, ptr %10, align 8, !tbaa !3
  %11 = load ptr, ptr %10, align 8, !tbaa !3
  %12 = load ptr, ptr %7, align 8, !tbaa !3
  call void @Abc_ObjAddFanin(ptr noundef %11, ptr noundef %12)
  %13 = load ptr, ptr %10, align 8, !tbaa !3
  %14 = load ptr, ptr %8, align 8, !tbaa !3
  call void @Abc_ObjAddFanin(ptr noundef %13, ptr noundef %14)
  %15 = load ptr, ptr %10, align 8, !tbaa !3
  %16 = load ptr, ptr %9, align 8, !tbaa !3
  call void @Abc_ObjAddFanin(ptr noundef %15, ptr noundef %16)
  %17 = load ptr, ptr %6, align 8, !tbaa !33
  %18 = call i32 @Abc_NtkHasSop(ptr noundef %17)
  %19 = icmp ne i32 %18, 0
  br i1 %19, label %20, label %27

20:                                               ; preds = %5
  %21 = load ptr, ptr %6, align 8, !tbaa !33
  %22 = getelementptr inbounds nuw %struct.Abc_Ntk_t_, ptr %21, i32 0, i32 30
  %23 = load ptr, ptr %22, align 8, !tbaa !56
  %24 = call ptr @Abc_SopRegister(ptr noundef %23, ptr noundef @.str.2)
  %25 = load ptr, ptr %10, align 8, !tbaa !3
  %26 = getelementptr inbounds nuw %struct.Abc_Obj_t_, ptr %25, i32 0, i32 6
  store ptr %24, ptr %26, align 8, !tbaa !47
  br label %79

27:                                               ; preds = %5
  %28 = load ptr, ptr %6, align 8, !tbaa !33
  %29 = call i32 @Abc_NtkHasBdd(ptr noundef %28)
  %30 = icmp ne i32 %29, 0
  br i1 %30, label %31, label %53

31:                                               ; preds = %27
  %32 = load ptr, ptr %6, align 8, !tbaa !33
  %33 = getelementptr inbounds nuw %struct.Abc_Ntk_t_, ptr %32, i32 0, i32 30
  %34 = load ptr, ptr %33, align 8, !tbaa !56
  %35 = load ptr, ptr %6, align 8, !tbaa !33
  %36 = getelementptr inbounds nuw %struct.Abc_Ntk_t_, ptr %35, i32 0, i32 30
  %37 = load ptr, ptr %36, align 8, !tbaa !56
  %38 = call ptr @Cudd_bddIthVar(ptr noundef %37, i32 noundef 0)
  %39 = load ptr, ptr %6, align 8, !tbaa !33
  %40 = getelementptr inbounds nuw %struct.Abc_Ntk_t_, ptr %39, i32 0, i32 30
  %41 = load ptr, ptr %40, align 8, !tbaa !56
  %42 = call ptr @Cudd_bddIthVar(ptr noundef %41, i32 noundef 1)
  %43 = load ptr, ptr %6, align 8, !tbaa !33
  %44 = getelementptr inbounds nuw %struct.Abc_Ntk_t_, ptr %43, i32 0, i32 30
  %45 = load ptr, ptr %44, align 8, !tbaa !56
  %46 = call ptr @Cudd_bddIthVar(ptr noundef %45, i32 noundef 2)
  %47 = call ptr @Cudd_bddIte(ptr noundef %34, ptr noundef %38, ptr noundef %42, ptr noundef %46)
  %48 = load ptr, ptr %10, align 8, !tbaa !3
  %49 = getelementptr inbounds nuw %struct.Abc_Obj_t_, ptr %48, i32 0, i32 6
  store ptr %47, ptr %49, align 8, !tbaa !47
  %50 = load ptr, ptr %10, align 8, !tbaa !3
  %51 = getelementptr inbounds nuw %struct.Abc_Obj_t_, ptr %50, i32 0, i32 6
  %52 = load ptr, ptr %51, align 8, !tbaa !47
  call void @Cudd_Ref(ptr noundef %52)
  br label %78

53:                                               ; preds = %27
  %54 = load ptr, ptr %6, align 8, !tbaa !33
  %55 = call i32 @Abc_NtkHasAig(ptr noundef %54)
  %56 = icmp ne i32 %55, 0
  br i1 %56, label %57, label %76

57:                                               ; preds = %53
  %58 = load ptr, ptr %6, align 8, !tbaa !33
  %59 = getelementptr inbounds nuw %struct.Abc_Ntk_t_, ptr %58, i32 0, i32 30
  %60 = load ptr, ptr %59, align 8, !tbaa !56
  %61 = load ptr, ptr %6, align 8, !tbaa !33
  %62 = getelementptr inbounds nuw %struct.Abc_Ntk_t_, ptr %61, i32 0, i32 30
  %63 = load ptr, ptr %62, align 8, !tbaa !56
  %64 = call ptr @Hop_IthVar(ptr noundef %63, i32 noundef 0)
  %65 = load ptr, ptr %6, align 8, !tbaa !33
  %66 = getelementptr inbounds nuw %struct.Abc_Ntk_t_, ptr %65, i32 0, i32 30
  %67 = load ptr, ptr %66, align 8, !tbaa !56
  %68 = call ptr @Hop_IthVar(ptr noundef %67, i32 noundef 1)
  %69 = load ptr, ptr %6, align 8, !tbaa !33
  %70 = getelementptr inbounds nuw %struct.Abc_Ntk_t_, ptr %69, i32 0, i32 30
  %71 = load ptr, ptr %70, align 8, !tbaa !56
  %72 = call ptr @Hop_IthVar(ptr noundef %71, i32 noundef 2)
  %73 = call ptr @Hop_Mux(ptr noundef %60, ptr noundef %64, ptr noundef %68, ptr noundef %72)
  %74 = load ptr, ptr %10, align 8, !tbaa !3
  %75 = getelementptr inbounds nuw %struct.Abc_Obj_t_, ptr %74, i32 0, i32 6
  store ptr %73, ptr %75, align 8, !tbaa !47
  br label %77

76:                                               ; preds = %53
  br label %77

77:                                               ; preds = %76, %57
  br label %78

78:                                               ; preds = %77, %31
  br label %79

79:                                               ; preds = %78, %20
  ret void
}