; Function Attrs: nounwind uwtable
define void @Abc_NtkNodeConvertToMux(ptr noundef readonly captures(none) %0, ptr noundef %1, ptr noundef %2, ptr noundef %3, ptr noundef %4) local_unnamed_addr #2 {
  tail call void @Abc_ObjAddFanin(ptr noundef %4, ptr noundef %1) #12
  tail call void @Abc_ObjAddFanin(ptr noundef %4, ptr noundef %2) #12
  tail call void @Abc_ObjAddFanin(ptr noundef %4, ptr noundef %3) #12
  %6 = getelementptr i8, ptr %0, i64 4
  %.val = load i32, ptr %6, align 4, !tbaa !50
  switch i32 %.val, label %32 [
    i32 1, label %7
    i32 2, label %12
    i32 3, label %22
  ]

7:                                                ; preds = %5
  %8 = getelementptr inbounds nuw i8, ptr %0, i64 256
  %9 = load ptr, ptr %8, align 8, !tbaa !51
  %10 = tail call ptr @Abc_SopRegister(ptr noundef %9, ptr noundef nonnull @.str.2) #12
  %11 = getelementptr inbounds nuw i8, ptr %4, i64 56
  store ptr %10, ptr %11, align 8, !tbaa !42
  br label %32

12:                                               ; preds = %5
  %13 = getelementptr inbounds nuw i8, ptr %0, i64 256
  %14 = load ptr, ptr %13, align 8, !tbaa !51
  %15 = tail call ptr @Cudd_bddIthVar(ptr noundef %14, i32 noundef 0) #12
  %16 = load ptr, ptr %13, align 8, !tbaa !51
  %17 = tail call ptr @Cudd_bddIthVar(ptr noundef %16, i32 noundef 1) #12
  %18 = load ptr, ptr %13, align 8, !tbaa !51
  %19 = tail call ptr @Cudd_bddIthVar(ptr noundef %18, i32 noundef 2) #12
  %20 = tail call ptr @Cudd_bddIte(ptr noundef %14, ptr noundef %15, ptr noundef %17, ptr noundef %19) #12
  %21 = getelementptr inbounds nuw i8, ptr %4, i64 56
  store ptr %20, ptr %21, align 8, !tbaa !42
  tail call void @Cudd_Ref(ptr noundef %20) #12
  br label %32

22:                                               ; preds = %5
  %23 = getelementptr inbounds nuw i8, ptr %0, i64 256
  %24 = load ptr, ptr %23, align 8, !tbaa !51
  %25 = tail call ptr @Hop_IthVar(ptr noundef %24, i32 noundef 0) #12
  %26 = load ptr, ptr %23, align 8, !tbaa !51
  %27 = tail call ptr @Hop_IthVar(ptr noundef %26, i32 noundef 1) #12
  %28 = load ptr, ptr %23, align 8, !tbaa !51
  %29 = tail call ptr @Hop_IthVar(ptr noundef %28, i32 noundef 2) #12
  %30 = tail call ptr @Hop_Mux(ptr noundef %24, ptr noundef %25, ptr noundef %27, ptr noundef %29) #12
  %31 = getelementptr inbounds nuw i8, ptr %4, i64 56
  store ptr %30, ptr %31, align 8, !tbaa !42
  br label %32

32:                                               ; preds = %5, %12, %22, %7
  ret void
}